target datalayout = "e-m:e-p270:32:32-p271:32:32-p272:64:64-i64:64-i128:128-f80:128-n8:16:32:64-S128"
target triple = "x86_64-pc-linux-gnu"

%struct.GetByteContext = type { ptr, ptr, ptr }

@.str.3 = private unnamed_addr constant [30 x i8] c"Assertion %s failed at %s:%d\0A\00", align 1
@.str.4 = private unnamed_addr constant [14 x i8] c"buf_size >= 0\00", align 1
@.str.5 = private unnamed_addr constant [24 x i8] c"libavcodec/bytestream.h\00", align 1

; Function Attrs: alwaysinline nounwind uwtable
define internal void @bytestream2_init(ptr noundef %0, ptr noundef %1, i32 noundef %2) #3 {
  %4 = alloca ptr, align 8
  %5 = alloca ptr, align 8
  %6 = alloca i32, align 4
  store ptr %0, ptr %4, align 8, !tbaa !8
  store ptr %1, ptr %5, align 8, !tbaa !21
  store i32 %2, ptr %6, align 4, !tbaa !10
  br label %7

7:                                                ; preds = %3
  %8 = load i32, ptr %6, align 4, !tbaa !10
  %9 = icmp sge i32 %8, 0
  br i1 %9, label %11, label %10

10:                                               ; preds = %7
  call void (ptr, i32, ptr, ...) @av_log(ptr noundef null, i32 noundef 0, ptr noundef @.str.3, ptr noundef @.str.4, ptr noundef @.str.5, i32 noundef 141)
  call void @abort() #8
  unreachable

11:                                               ; preds = %7
  br label %12

12:                                               ; preds = %11
  %13 = load ptr, ptr %5, align 8, !tbaa !21
  %14 = load ptr, ptr %4, align 8, !tbaa !8
  %15 = getelementptr inbounds nuw %struct.GetByteContext, ptr %14, i32 0, i32 0
  store ptr %13, ptr %15, align 8, !tbaa !20
  %16 = load ptr, ptr %5, align 8, !tbaa !21
  %17 = load ptr, ptr %4, align 8, !tbaa !8
  %18 = getelementptr inbounds nuw %struct.GetByteContext, ptr %17, i32 0, i32 2
  store ptr %16, ptr %18, align 8, !tbaa !22
  %19 = load ptr, ptr %5, align 8, !tbaa !21
  %20 = load i32, ptr %6, align 4, !tbaa !10
  %21 = sext i32 %20 to i64
  %22 = getelementptr inbounds i8, ptr %19, i64 %21
  %23 = load ptr, ptr %4, align 8, !tbaa !8
  %24 = getelementptr inbounds nuw %struct.GetByteContext, ptr %23, i32 0, i32 1
  store ptr %22, ptr %24, align 8, !tbaa !17
  ret void
}

; Function Attrs: nounwind uwtable
define i32 @avpriv_exif_decode_ifd(ptr noundef %0, ptr noundef %1, i32 noundef %2, i32 noundef %3, i32 noundef %4, ptr noundef %5) #0 {
  %7 = alloca ptr, align 8
  %8 = alloca ptr, align 8
  %9 = alloca i32, align 4
  %10 = alloca i32, align 4
  %11 = alloca i32, align 4
  %12 = alloca ptr, align 8
  %13 = alloca %struct.GetByteContext, align 8
  store ptr %0, ptr %7, align 8, !tbaa !4
  store ptr %1, ptr %8, align 8, !tbaa !21
  store i32 %2, ptr %9, align 4, !tbaa !10
  store i32 %3, ptr %10, align 4, !tbaa !10
  store i32 %4, ptr %11, align 4, !tbaa !10
  store ptr %5, ptr %12, align 8, !tbaa !12
  call void @llvm.lifetime.start.p0(i64 24, ptr %13) #7
  %14 = load ptr, ptr %8, align 8, !tbaa !21
  %15 = load i32, ptr %9, align 4, !tbaa !10
  call void @bytestream2_init(ptr noundef %13, ptr noundef %14, i32 noundef %15)
  %16 = load ptr, ptr %7, align 8, !tbaa !4
  %17 = load i32, ptr %10, align 4, !tbaa !10
  %18 = load i32, ptr %11, align 4, !tbaa !10
  %19 = load ptr, ptr %12, align 8, !tbaa !12
  %20 = call i32 @ff_exif_decode_ifd(ptr noundef %16, ptr noundef %13, i32 noundef %17, i32 noundef %18, ptr noundef %19)
  call void @llvm.lifetime.end.p0(i64 24, ptr %13) #7
  ret i32 %20
}