; Function Attrs: nounwind uwtable
define i32 @avpriv_exif_decode_ifd(ptr noundef %0, ptr noundef %1, i32 noundef %2, i32 noundef %3, i32 noundef %4, ptr noundef %5) local_unnamed_addr #0 {
  %7 = alloca %struct.GetByteContext, align 8
  call void @llvm.lifetime.start.p0(i64 24, ptr nonnull %7) #6
  %8 = icmp sgt i32 %2, -1
  br i1 %8, label %bytestream2_init.exit, label %9

9:                                                ; preds = %6
  tail call void (ptr, i32, ptr, ...) @av_log(ptr noundef null, i32 noundef 0, ptr noundef nonnull @.str.3, ptr noundef nonnull @.str.4, ptr noundef nonnull @.str.5, i32 noundef 141) #6
  tail call void @abort() #7
  unreachable

bytestream2_init.exit:                            ; preds = %6
  store ptr %1, ptr %7, align 8, !tbaa !10
  %10 = getelementptr inbounds nuw i8, ptr %7, i64 16
  store ptr %1, ptr %10, align 8, !tbaa !11
  %11 = zext nneg i32 %2 to i64
  %12 = getelementptr inbounds nuw i8, ptr %1, i64 %11
  %13 = getelementptr inbounds nuw i8, ptr %7, i64 8
  store ptr %12, ptr %13, align 8, !tbaa !4
  %14 = call i32 @ff_exif_decode_ifd(ptr noundef %0, ptr noundef nonnull %7, i32 noundef %3, i32 noundef %4, ptr noundef %5)
  call void @llvm.lifetime.end.p0(i64 24, ptr nonnull %7) #6
  ret i32 %14
}